target datalayout = "e-m:e-p270:32:32-p271:32:32-p272:64:64-i64:64-i128:128-f80:128-n8:16:32:64-S128"
target triple = "x86_64-pc-linux-gnu"

%class.RAROptions = type { i32, i32, i8, i8, i8, i64, [2048 x i32], [2048 x i32], i32, i8, [2048 x i32], [2048 x i32], i32, i32, i32, i32, [2048 x i32], [2048 x i32], i8, i8, i8, [2048 x i32], i32, i32, i32, i32, i32, i32, i32, i32, i8, i8, i8, i8, i8, i32, i32, i8, i8, i8, i8, i8, i32, i32, i64, i32, i8, i8, i8, i32, i32, i8, i8, i8, i8, i32, i32, i8, i8, i8, i8, [128 x i32], [128 x i32], i8, i8, i8, i8, i8, %class.RarTime, %class.RarTime, %class.RarTime, i8, i8, i8, %class.RarTime, %class.RarTime, %class.RarTime, i8, i8, i8, i64, i64, i8, i8, i8, [16 x %struct.FilterMode], [2048 x i32], i32, i32, i32, i32, i32, i32, i8, [2048 x i32], i32, [2048 x i32], i32, i32, i64, ptr, ptr, ptr }
%class.RarTime = type { i64 }
%struct.FilterMode = type { i32, i32, i32 }

; Function Attrs: mustprogress nounwind uwtable
define noundef zeroext i1 @_ZN11CommandData9SizeCheckEl(ptr noundef nonnull align 8 dereferenceable(100904) %0, i64 noundef %1) #1 align 2 {
  %3 = alloca i1, align 1
  %4 = alloca ptr, align 8
  %5 = alloca i64, align 8
  store ptr %0, ptr %4, align 8
  store i64 %1, ptr %5, align 8
  %6 = load ptr, ptr %4, align 8
  %7 = load i64, ptr %5, align 8
  %8 = icmp eq i64 %7, 9223372034707292159
  br i1 %8, label %9, label %10

9:                                                ; preds = %2
  store i1 false, ptr %3, align 1
  br label %31

10:                                               ; preds = %2
  %11 = getelementptr inbounds %class.RAROptions, ptr %6, i32 0, i32 80
  %12 = load i64, ptr %11, align 8
  %13 = icmp ne i64 %12, 9223372034707292159
  br i1 %13, label %14, label %20

14:                                               ; preds = %10
  %15 = load i64, ptr %5, align 8
  %16 = getelementptr inbounds %class.RAROptions, ptr %6, i32 0, i32 80
  %17 = load i64, ptr %16, align 8
  %18 = icmp sge i64 %15, %17
  br i1 %18, label %19, label %20

19:                                               ; preds = %14
  store i1 true, ptr %3, align 1
  br label %31

20:                                               ; preds = %14, %10
  %21 = getelementptr inbounds %class.RAROptions, ptr %6, i32 0, i32 81
  %22 = load i64, ptr %21, align 8
  %23 = icmp ne i64 %22, 9223372034707292159
  br i1 %23, label %24, label %30

24:                                               ; preds = %20
  %25 = load i64, ptr %5, align 8
  %26 = getelementptr inbounds %class.RAROptions, ptr %6, i32 0, i32 81
  %27 = load i64, ptr %26, align 8
  %28 = icmp sle i64 %25, %27
  br i1 %28, label %29, label %30

29:                                               ; preds = %24
  store i1 true, ptr %3, align 1
  br label %31

30:                                               ; preds = %24, %20
  store i1 false, ptr %3, align 1
  br label %31

31:                                               ; preds = %30, %29, %19, %9
  %32 = load i1, ptr %3, align 1
  ret i1 %32
}