; Function Attrs: mustprogress nofree norecurse nosync nounwind willreturn memory(argmem: read) uwtable
define noundef zeroext i1 @_ZN11CommandData9SizeCheckEl(ptr noundef nonnull readonly align 8 captures(none) dereferenceable(100904) %0, i64 noundef %1) local_unnamed_addr #4 align 2 {
  %3 = icmp eq i64 %1, 9223372034707292159
  br i1 %3, label %10, label %4

4:                                                ; preds = %2
  %5 = getelementptr inbounds nuw i8, ptr %0, i64 58600
  %6 = load i64, ptr %5, align 8
  %.not = icmp eq i64 %6, 9223372034707292159
  %.not7 = icmp slt i64 %1, %6
  %or.cond = or i1 %.not, %.not7
  br i1 %or.cond, label %7, label %10

7:                                                ; preds = %4
  %8 = getelementptr inbounds nuw i8, ptr %0, i64 58608
  %9 = load i64, ptr %8, align 8
  %.not8 = icmp ne i64 %9, 9223372034707292159
  %.not9 = icmp sle i64 %1, %9
  %or.cond10.not = and i1 %.not8, %.not9
  br label %10

10:                                               ; preds = %7, %4, %2
  %.0 = phi i1 [ false, %2 ], [ true, %4 ], [ %or.cond10.not, %7 ]
  ret i1 %.0
}